; Function Attrs: mustprogress nounwind uwtable
define dso_local void @_ZN4llvm18AArch64InstPrinter18printMemExtendImplEbbjcRNS_11raw_ostreamE(ptr noundef nonnull align 8 dereferenceable(58) %0, i1 noundef zeroext %1, i1 noundef zeroext %2, i32 noundef %3, i8 noundef signext %4, ptr noundef nonnull align 8 dereferenceable(48) %5) local_unnamed_addr #1 align 2 {
  %7 = alloca %"class.llvm::MCInstPrinter::WithMarkup", align 8
  %8 = icmp ne i8 %4, 120
  %.not12 = or i1 %1, %8
  br i1 %.not12, label %23, label %9

9:                                                ; preds = %6
  %10 = getelementptr inbounds nuw i8, ptr %5, i64 24
  %11 = load ptr, ptr %10, align 8
  %12 = getelementptr inbounds nuw i8, ptr %5, i64 32
  %13 = load ptr, ptr %12, align 8
  %14 = ptrtoint ptr %11 to i64
  %15 = ptrtoint ptr %13 to i64
  %16 = sub i64 %14, %15
  %17 = icmp ult i64 %16, 3
  br i1 %17, label %18, label %20

18:                                               ; preds = %9
  %19 = tail call noundef nonnull align 8 dereferenceable(48) ptr @_ZN4llvm11raw_ostream5writeEPKcm(ptr noundef nonnull align 8 dereferenceable(48) %5, ptr noundef nonnull @.str.84, i64 noundef 3) #22
  br label %_ZN4llvm11raw_ostreamlsEPKc.exit.thread

20:                                               ; preds = %9
  tail call void @llvm.memcpy.p0.p0.i64(ptr noundef nonnull align 1 dereferenceable(3) %13, ptr noundef nonnull align 1 dereferenceable(3) @.str.84, i64 3, i1 false)
  %21 = load ptr, ptr %12, align 8
  %22 = getelementptr inbounds i8, ptr %21, i64 3
  store ptr %22, ptr %12, align 8
  br label %_ZN4llvm11raw_ostreamlsEPKc.exit.thread

23:                                               ; preds = %6
  %24 = select i1 %1, i8 115, i8 117
  %25 = getelementptr inbounds nuw i8, ptr %5, i64 32
  %26 = load ptr, ptr %25, align 8
  %27 = getelementptr inbounds nuw i8, ptr %5, i64 24
  %28 = load ptr, ptr %27, align 8
  %.not.i = icmp ult ptr %26, %28
  br i1 %.not.i, label %31, label %29

29:                                               ; preds = %23
  %30 = tail call noundef nonnull align 8 dereferenceable(48) ptr @_ZN4llvm11raw_ostream5writeEh(ptr noundef nonnull align 8 dereferenceable(48) %5, i8 noundef zeroext %24) #22
  br label %_ZN4llvm11raw_ostreamlsEc.exit

31:                                               ; preds = %23
  %32 = getelementptr inbounds i8, ptr %26, i64 1
  store ptr %32, ptr %25, align 8
  store i8 %24, ptr %26, align 1
  br label %_ZN4llvm11raw_ostreamlsEc.exit

_ZN4llvm11raw_ostreamlsEc.exit:                   ; preds = %29, %31
  %.0.i = phi ptr [ %30, %29 ], [ %5, %31 ]
  %33 = getelementptr inbounds nuw i8, ptr %.0.i, i64 24
  %34 = load ptr, ptr %33, align 8
  %35 = getelementptr inbounds nuw i8, ptr %.0.i, i64 32
  %36 = load ptr, ptr %35, align 8
  %37 = ptrtoint ptr %34 to i64
  %38 = ptrtoint ptr %36 to i64
  %39 = sub i64 %37, %38
  %40 = icmp ult i64 %39, 2
  br i1 %40, label %41, label %43

41:                                               ; preds = %_ZN4llvm11raw_ostreamlsEc.exit
  %42 = tail call noundef nonnull align 8 dereferenceable(48) ptr @_ZN4llvm11raw_ostream5writeEPKcm(ptr noundef nonnull align 8 dereferenceable(48) %.0.i, ptr noundef nonnull @.str.121, i64 noundef 2) #22
  %.phi.trans.insert = getelementptr inbounds nuw i8, ptr %42, i64 32
  %.pre = load ptr, ptr %.phi.trans.insert, align 8
  br label %_ZN4llvm11raw_ostreamlsEPKc.exit15

43:                                               ; preds = %_ZN4llvm11raw_ostreamlsEc.exit
  store i16 29816, ptr %36, align 1
  %44 = load ptr, ptr %35, align 8
  %45 = getelementptr inbounds i8, ptr %44, i64 2
  store ptr %45, ptr %35, align 8
  br label %_ZN4llvm11raw_ostreamlsEPKc.exit15

_ZN4llvm11raw_ostreamlsEPKc.exit15:               ; preds = %41, %43
  %46 = phi ptr [ %.pre, %41 ], [ %45, %43 ]
  %.0.i.i14 = phi ptr [ %42, %41 ], [ %.0.i, %43 ]
  %47 = getelementptr inbounds nuw i8, ptr %.0.i.i14, i64 24
  %48 = load ptr, ptr %47, align 8
  %.not.i16 = icmp ult ptr %46, %48
  br i1 %.not.i16, label %51, label %49

49:                                               ; preds = %_ZN4llvm11raw_ostreamlsEPKc.exit15
  %50 = tail call noundef nonnull align 8 dereferenceable(48) ptr @_ZN4llvm11raw_ostream5writeEh(ptr noundef nonnull align 8 dereferenceable(48) %.0.i.i14, i8 noundef zeroext %4) #22
  br label %_ZN4llvm11raw_ostreamlsEPKc.exit

51:                                               ; preds = %_ZN4llvm11raw_ostreamlsEPKc.exit15
  %52 = getelementptr inbounds nuw i8, ptr %.0.i.i14, i64 32
  %53 = getelementptr inbounds i8, ptr %46, i64 1
  store ptr %53, ptr %52, align 8
  store i8 %4, ptr %46, align 1
  br label %_ZN4llvm11raw_ostreamlsEPKc.exit

_ZN4llvm11raw_ostreamlsEPKc.exit:                 ; preds = %51, %49
  br i1 %2, label %_ZN4llvm11raw_ostreamlsEPKc.exit.thread, label %81

_ZN4llvm11raw_ostreamlsEPKc.exit.thread:          ; preds = %18, %20, %_ZN4llvm11raw_ostreamlsEPKc.exit
  %54 = getelementptr inbounds nuw i8, ptr %5, i64 24
  %55 = load ptr, ptr %54, align 8
  %56 = getelementptr inbounds nuw i8, ptr %5, i64 32
  %57 = load ptr, ptr %56, align 8
  %58 = icmp eq ptr %55, %57
  br i1 %58, label %59, label %61

59:                                               ; preds = %_ZN4llvm11raw_ostreamlsEPKc.exit.thread
  %60 = tail call noundef nonnull align 8 dereferenceable(48) ptr @_ZN4llvm11raw_ostream5writeEPKcm(ptr noundef nonnull align 8 dereferenceable(48) %5, ptr noundef nonnull @.str.119, i64 noundef 1) #22
  br label %_ZN4llvm11raw_ostreamlsEPKc.exit21

61:                                               ; preds = %_ZN4llvm11raw_ostreamlsEPKc.exit.thread
  store i8 32, ptr %57, align 1
  %62 = load ptr, ptr %56, align 8
  %63 = getelementptr inbounds i8, ptr %62, i64 1
  store ptr %63, ptr %56, align 8
  br label %_ZN4llvm11raw_ostreamlsEPKc.exit21

_ZN4llvm11raw_ostreamlsEPKc.exit21:               ; preds = %59, %61
  call void @_ZNK4llvm13MCInstPrinter6markupERNS_11raw_ostreamENS0_6MarkupE(ptr dead_on_unwind nonnull writable sret(%"class.llvm::MCInstPrinter::WithMarkup") align 8 %7, ptr noundef nonnull align 8 dereferenceable(58) %0, ptr noundef nonnull align 8 dereferenceable(48) %5, i32 noundef 0) #22
  %64 = load ptr, ptr %7, align 8
  %65 = getelementptr inbounds nuw i8, ptr %64, i64 24
  %66 = load ptr, ptr %65, align 8
  %67 = getelementptr inbounds nuw i8, ptr %64, i64 32
  %68 = load ptr, ptr %67, align 8
  %69 = icmp eq ptr %66, %68
  br i1 %69, label %70, label %72

70:                                               ; preds = %_ZN4llvm11raw_ostreamlsEPKc.exit21
  %71 = call noundef nonnull align 8 dereferenceable(48) ptr @_ZN4llvm11raw_ostream5writeEPKcm(ptr noundef nonnull align 8 dereferenceable(48) %64, ptr noundef nonnull @.str.87, i64 noundef 1) #22
  br label %_ZN4llvm13MCInstPrinter10WithMarkuplsIA2_cEERS1_RKT_.exit

72:                                               ; preds = %_ZN4llvm11raw_ostreamlsEPKc.exit21
  store i8 35, ptr %68, align 1
  %73 = load ptr, ptr %67, align 8
  %74 = getelementptr inbounds i8, ptr %73, i64 1
  store ptr %74, ptr %67, align 8
  br label %_ZN4llvm13MCInstPrinter10WithMarkuplsIA2_cEERS1_RKT_.exit

_ZN4llvm13MCInstPrinter10WithMarkuplsIA2_cEERS1_RKT_.exit: ; preds = %70, %72
  %75 = lshr i32 %3, 3
  %76 = call noundef range(i32 0, 33) i32 @llvm.ctlz.i32(i32 %75, i1 false)
  %77 = sub nsw i32 31, %76
  %78 = load ptr, ptr %7, align 8
  %79 = zext i32 %77 to i64
  %80 = call noundef nonnull align 8 dereferenceable(48) ptr @_ZN4llvm11raw_ostreamlsEm(ptr noundef nonnull align 8 dereferenceable(48) %78, i64 noundef %79) #22
  call void @_ZN4llvm13MCInstPrinter10WithMarkupD1Ev(ptr noundef nonnull align 8 dereferenceable(10) %7) #22
  br label %81

81:                                               ; preds = %_ZN4llvm11raw_ostreamlsEPKc.exit, %_ZN4llvm13MCInstPrinter10WithMarkuplsIA2_cEERS1_RKT_.exit
  ret void
}